target datalayout = "e-m:e-p270:32:32-p271:32:32-p272:64:64-i64:64-i128:128-f80:128-n8:16:32:64-S128"
target triple = "x86_64-unknown-linux-gnu"

%"struct.rocksdb::Cache::CacheItemHelper" = type { ptr, ptr, ptr, ptr, i32, ptr }
%"class.std::__shared_count" = type { ptr }
%"class.std::function" = type { %"class.std::_Function_base", ptr }
%"class.std::_Function_base" = type { %"union.std::_Any_data", ptr }
%"union.std::_Any_data" = type { %"union.std::_Nocopy_types" }
%"union.std::_Nocopy_types" = type { { i64, i64 } }
%"class.rocksdb::Cache" = type { ptr, %"class.std::shared_ptr.3", %"class.std::function" }
%"class.std::shared_ptr.3" = type { %"class.std::__shared_ptr.4" }
%"class.std::__shared_ptr.4" = type { ptr, %"class.std::__shared_count" }

; Function Attrs: mustprogress nounwind uwtable
define linkonce_odr noundef ptr @_ZNKSt12__shared_ptrIN7rocksdb15MemoryAllocatorELN9__gnu_cxx12_Lock_policyE2EE3getEv(ptr noundef nonnull align 8 dereferenceable(16) %this) #1 comdat align 2 {
entry:
  %this.addr = alloca ptr, align 8
  store ptr %this, ptr %this.addr, align 8
  %this1 = load ptr, ptr %this.addr, align 8
  %_M_ptr = getelementptr inbounds %"class.std::__shared_ptr.4", ptr %this1, i32 0, i32 0
  %0 = load ptr, ptr %_M_ptr, align 8
  ret ptr %0
}

; Function Attrs: mustprogress nounwind uwtable
define linkonce_odr noundef ptr @_ZNK7rocksdb5Cache16memory_allocatorEv(ptr noundef nonnull align 8 dereferenceable(56) %this) #1 comdat align 2 {
entry:
  %this.addr = alloca ptr, align 8
  store ptr %this, ptr %this.addr, align 8
  %this1 = load ptr, ptr %this.addr, align 8
  %memory_allocator_ = getelementptr inbounds %"class.rocksdb::Cache", ptr %this1, i32 0, i32 1
  %call = call noundef ptr @_ZNKSt12__shared_ptrIN7rocksdb15MemoryAllocatorELN9__gnu_cxx12_Lock_policyE2EE3getEv(ptr noundef nonnull align 8 dereferenceable(16) %memory_allocator_) #14
  ret ptr %call
}

; Function Attrs: mustprogress uwtable
define void @_ZN7rocksdb25CacheWithSecondaryAdapter18CleanupCacheObjectEPvPKNS_5Cache15CacheItemHelperE(ptr noundef nonnull align 8 dereferenceable(184) %this, ptr noundef %obj, ptr noundef %helper) #0 align 2 {
entry:
  %this.addr = alloca ptr, align 8
  %obj.addr = alloca ptr, align 8
  %helper.addr = alloca ptr, align 8
  store ptr %this, ptr %this.addr, align 8
  store ptr %obj, ptr %obj.addr, align 8
  store ptr %helper, ptr %helper.addr, align 8
  %this1 = load ptr, ptr %this.addr, align 8
  %0 = load ptr, ptr %helper.addr, align 8
  %del_cb = getelementptr inbounds %"struct.rocksdb::Cache::CacheItemHelper", ptr %0, i32 0, i32 0
  %1 = load ptr, ptr %del_cb, align 8
  %tobool = icmp ne ptr %1, null
  br i1 %tobool, label %if.then, label %if.end

if.then:                                          ; preds = %entry
  %2 = load ptr, ptr %helper.addr, align 8
  %del_cb2 = getelementptr inbounds %"struct.rocksdb::Cache::CacheItemHelper", ptr %2, i32 0, i32 0
  %3 = load ptr, ptr %del_cb2, align 8
  %4 = load ptr, ptr %obj.addr, align 8
  %call = call noundef ptr @_ZNK7rocksdb5Cache16memory_allocatorEv(ptr noundef nonnull align 8 dereferenceable(56) %this1)
  call void %3(ptr noundef %4, ptr noundef %call)
  br label %if.end

if.end:                                           ; preds = %if.then, %entry
  ret void
}