; Function Attrs: mustprogress uwtable
define void @_ZN7rocksdb25CacheWithSecondaryAdapter18CleanupCacheObjectEPvPKNS_5Cache15CacheItemHelperE(ptr nocapture noundef nonnull readonly align 8 dereferenceable(184) %this, ptr noundef %obj, ptr nocapture noundef readonly %helper) local_unnamed_addr #0 align 2 {
entry:
  %0 = load ptr, ptr %helper, align 8
  %tobool.not = icmp eq ptr %0, null
  br i1 %tobool.not, label %if.end, label %if.then

if.then:                                          ; preds = %entry
  %memory_allocator_.i = getelementptr inbounds i8, ptr %this, i64 8
  %1 = load ptr, ptr %memory_allocator_.i, align 8
  tail call void %0(ptr noundef %obj, ptr noundef %1)
  br label %if.end

if.end:                                           ; preds = %if.then, %entry
  ret void
}